target datalayout = "e-m:e-p270:32:32-p271:32:32-p272:64:64-i64:64-i128:128-f80:128-n8:16:32:64-S128"
target triple = "x86_64-pc-linux-gnu"

%struct.Aes = type { [60 x i32], i32, i32, [8 x i8], [4 x i32], [4 x i32], [2 x i32], i32, [4 x i8], %struct.Gcm, ptr, [8 x i8] }
%struct.Gcm = type { [16 x i8], [32 x [16 x i8]] }

; Function Attrs: nounwind uwtable
define i32 @wc_AesCbcEncryptWithKey(ptr noundef %0, ptr noundef %1, i32 noundef %2, ptr noundef %3, i32 noundef %4, ptr noundef %5) #0 {
  %7 = alloca ptr, align 8
  %8 = alloca ptr, align 8
  %9 = alloca i32, align 4
  %10 = alloca ptr, align 8
  %11 = alloca i32, align 4
  %12 = alloca ptr, align 8
  %13 = alloca i32, align 4
  %14 = alloca [1 x %struct.Aes], align 16
  store ptr %0, ptr %7, align 8, !tbaa !3
  store ptr %1, ptr %8, align 8, !tbaa !3
  store i32 %2, ptr %9, align 4, !tbaa !8
  store ptr %3, ptr %10, align 8, !tbaa !3
  store i32 %4, ptr %11, align 4, !tbaa !8
  store ptr %5, ptr %12, align 8, !tbaa !3
  call void @llvm.lifetime.start.p0(i64 4, ptr %13) #4
  store i32 0, ptr %13, align 4, !tbaa !8
  call void @llvm.lifetime.start.p0(i64 848, ptr %14) #4
  %15 = getelementptr inbounds [1 x %struct.Aes], ptr %14, i64 0, i64 0
  %16 = call i32 @wc_AesInit(ptr noundef %15, ptr noundef null, i32 noundef -2)
  store i32 %16, ptr %13, align 4, !tbaa !8
  %17 = load i32, ptr %13, align 4, !tbaa !8
  %18 = icmp eq i32 %17, 0
  br i1 %18, label %19, label %35

19:                                               ; preds = %6
  %20 = getelementptr inbounds [1 x %struct.Aes], ptr %14, i64 0, i64 0
  %21 = load ptr, ptr %10, align 8, !tbaa !3
  %22 = load i32, ptr %11, align 4, !tbaa !8
  %23 = load ptr, ptr %12, align 8, !tbaa !3
  %24 = call i32 @wc_AesSetKey(ptr noundef %20, ptr noundef %21, i32 noundef %22, ptr noundef %23, i32 noundef 0)
  store i32 %24, ptr %13, align 4, !tbaa !8
  %25 = load i32, ptr %13, align 4, !tbaa !8
  %26 = icmp eq i32 %25, 0
  br i1 %26, label %27, label %33

27:                                               ; preds = %19
  %28 = getelementptr inbounds [1 x %struct.Aes], ptr %14, i64 0, i64 0
  %29 = load ptr, ptr %7, align 8, !tbaa !3
  %30 = load ptr, ptr %8, align 8, !tbaa !3
  %31 = load i32, ptr %9, align 4, !tbaa !8
  %32 = call i32 @wc_AesCbcEncrypt(ptr noundef %28, ptr noundef %29, ptr noundef %30, i32 noundef %31)
  store i32 %32, ptr %13, align 4, !tbaa !8
  br label %33

33:                                               ; preds = %27, %19
  %34 = getelementptr inbounds [1 x %struct.Aes], ptr %14, i64 0, i64 0
  call void @wc_AesFree(ptr noundef %34)
  br label %35

35:                                               ; preds = %33, %6
  %36 = load i32, ptr %13, align 4, !tbaa !8
  call void @llvm.lifetime.end.p0(i64 848, ptr %14) #4
  call void @llvm.lifetime.end.p0(i64 4, ptr %13) #4
  ret i32 %36
}