; Function Attrs: nounwind uwtable
define i32 @wc_AesCbcEncryptWithKey(ptr noundef %0, ptr noundef %1, i32 noundef %2, ptr noundef %3, i32 noundef %4, ptr noundef %5) local_unnamed_addr #0 {
  %7 = alloca [1 x %struct.Aes], align 16
  call void @llvm.lifetime.start.p0(i64 848, ptr nonnull %7) #3
  %8 = call i32 @wc_AesInit(ptr noundef nonnull %7, ptr noundef null, i32 noundef -2) #3
  %9 = icmp eq i32 %8, 0
  br i1 %9, label %10, label %16

10:                                               ; preds = %6
  %11 = call i32 @wc_AesSetKey(ptr noundef nonnull %7, ptr noundef %3, i32 noundef %4, ptr noundef %5, i32 noundef 0) #3
  %12 = icmp eq i32 %11, 0
  br i1 %12, label %13, label %15

13:                                               ; preds = %10
  %14 = call i32 @wc_AesCbcEncrypt(ptr noundef nonnull %7, ptr noundef %0, ptr noundef %1, i32 noundef %2) #3
  br label %15

15:                                               ; preds = %13, %10
  %.1 = phi i32 [ %14, %13 ], [ %11, %10 ]
  call void @wc_AesFree(ptr noundef nonnull %7) #3
  br label %16

16:                                               ; preds = %15, %6
  %.0 = phi i32 [ %.1, %15 ], [ %8, %6 ]
  call void @llvm.lifetime.end.p0(i64 848, ptr nonnull %7) #3
  ret i32 %.0
}